target datalayout = "e-m:e-p270:32:32-p271:32:32-p272:64:64-i64:64-i128:128-f80:128-n8:16:32:64-S128"
target triple = "x86_64-pc-linux-gnu"

%struct.dsm_control_header = type { i32, i32, i32, [0 x %struct.dsm_control_item] }
%struct.dsm_control_item = type { i32, i32, i64, i64, ptr, i8 }
%union.LWLockPadded = type { %struct.LWLock, [112 x i8] }
%struct.LWLock = type { i16, %struct.pg_atomic_uint32, %struct.proclist_head }
%struct.pg_atomic_uint32 = type { i32 }
%struct.proclist_head = type { i32, i32 }

@.str.1 = private unnamed_addr constant [6 x i8] c"dsm.c\00", align 1
@dsm_control = internal global ptr null, align 8
@dsm_main_space_begin = internal global ptr null, align 8
@MainLWLockArray = external global ptr, align 8
@.str.9 = private unnamed_addr constant [36 x i8] c"cannot unpin unknown segment handle\00", align 1
@__func__.dsm_unpin_segment = private unnamed_addr constant [18 x i8] c"dsm_unpin_segment\00", align 1
@.str.10 = private unnamed_addr constant [42 x i8] c"cannot unpin a segment that is not pinned\00", align 1

; Function Attrs: inlinehint nounwind uwtable
define internal zeroext i1 @is_main_region_dsm_handle(i32 noundef %0) #4 {
  %2 = alloca i32, align 4
  store i32 %0, ptr %2, align 4
  %3 = load i32, ptr %2, align 4
  %4 = and i32 %3, 1
  %5 = icmp ne i32 %4, 0
  ret i1 %5
}

; Function Attrs: nounwind uwtable
define dso_local void @dsm_unpin_segment(i32 noundef %0) #0 {
  %2 = alloca i32, align 4
  %3 = alloca i32, align 4
  %4 = alloca i8, align 1
  %5 = alloca i32, align 4
  %6 = alloca ptr, align 8
  %7 = alloca ptr, align 8
  %8 = alloca i64, align 8
  store i32 %0, ptr %2, align 4
  call void @llvm.lifetime.start.p0(i64 4, ptr %3) #8
  store i32 -1, ptr %3, align 4
  call void @llvm.lifetime.start.p0(i64 1, ptr %4) #8
  store i8 0, ptr %4, align 1
  call void @llvm.lifetime.start.p0(i64 4, ptr %5) #8
  %9 = load ptr, ptr @MainLWLockArray, align 8
  %10 = getelementptr inbounds %union.LWLockPadded, ptr %9, i64 34
  %11 = call zeroext i1 @LWLockAcquire(ptr noundef %10, i32 noundef 0)
  store i32 0, ptr %5, align 4
  br label %12

12:                                               ; preds = %41, %1
  %13 = load i32, ptr %5, align 4
  %14 = load ptr, ptr @dsm_control, align 8
  %15 = getelementptr inbounds nuw %struct.dsm_control_header, ptr %14, i32 0, i32 1
  %16 = load i32, ptr %15, align 4
  %17 = icmp ult i32 %13, %16
  br i1 %17, label %18, label %44

18:                                               ; preds = %12
  %19 = load ptr, ptr @dsm_control, align 8
  %20 = getelementptr inbounds nuw %struct.dsm_control_header, ptr %19, i32 0, i32 3
  %21 = load i32, ptr %5, align 4
  %22 = zext i32 %21 to i64
  %23 = getelementptr inbounds nuw [0 x %struct.dsm_control_item], ptr %20, i64 0, i64 %22
  %24 = getelementptr inbounds nuw %struct.dsm_control_item, ptr %23, i32 0, i32 1
  %25 = load i32, ptr %24, align 4
  %26 = icmp ule i32 %25, 1
  br i1 %26, label %27, label %28

27:                                               ; preds = %18
  br label %41

28:                                               ; preds = %18
  %29 = load ptr, ptr @dsm_control, align 8
  %30 = getelementptr inbounds nuw %struct.dsm_control_header, ptr %29, i32 0, i32 3
  %31 = load i32, ptr %5, align 4
  %32 = zext i32 %31 to i64
  %33 = getelementptr inbounds nuw [0 x %struct.dsm_control_item], ptr %30, i64 0, i64 %32
  %34 = getelementptr inbounds nuw %struct.dsm_control_item, ptr %33, i32 0, i32 0
  %35 = load i32, ptr %34, align 8
  %36 = load i32, ptr %2, align 4
  %37 = icmp eq i32 %35, %36
  br i1 %37, label %38, label %40

38:                                               ; preds = %28
  %39 = load i32, ptr %5, align 4
  store i32 %39, ptr %3, align 4
  br label %44

40:                                               ; preds = %28
  br label %41

41:                                               ; preds = %40, %27
  %42 = load i32, ptr %5, align 4
  %43 = add i32 %42, 1
  store i32 %43, ptr %5, align 4
  br label %12, !llvm.loop !17

44:                                               ; preds = %38, %12
  %45 = load i32, ptr %3, align 4
  %46 = icmp eq i32 %45, -1
  br i1 %46, label %47, label %58

47:                                               ; preds = %44
  br label %48

48:                                               ; preds = %47
  br i1 true, label %49, label %51

49:                                               ; preds = %48
  %50 = call zeroext i1 @errstart_cold(i32 noundef 21, ptr noundef null) #9
  br i1 %50, label %53, label %55

51:                                               ; preds = %48
  %52 = call zeroext i1 @errstart(i32 noundef 21, ptr noundef null)
  br i1 %52, label %53, label %55

53:                                               ; preds = %51, %49
  %54 = call i32 (ptr, ...) @errmsg_internal(ptr noundef @.str.9)
  call void @errfinish(ptr noundef @.str.1, i32 noundef 1016, ptr noundef @__func__.dsm_unpin_segment)
  br label %55

55:                                               ; preds = %53, %51, %49
  unreachable

56:                                               ; No predecessors!
  br label %57

57:                                               ; preds = %56
  br label %58

58:                                               ; preds = %57, %44
  %59 = load ptr, ptr @dsm_control, align 8
  %60 = getelementptr inbounds nuw %struct.dsm_control_header, ptr %59, i32 0, i32 3
  %61 = load i32, ptr %3, align 4
  %62 = zext i32 %61 to i64
  %63 = getelementptr inbounds nuw [0 x %struct.dsm_control_item], ptr %60, i64 0, i64 %62
  %64 = getelementptr inbounds nuw %struct.dsm_control_item, ptr %63, i32 0, i32 5
  %65 = load i8, ptr %64, align 8, !range !8, !noundef !9
  %66 = trunc i8 %65 to i1
  br i1 %66, label %78, label %67

67:                                               ; preds = %58
  br label %68

68:                                               ; preds = %67
  br i1 true, label %69, label %71

69:                                               ; preds = %68
  %70 = call zeroext i1 @errstart_cold(i32 noundef 21, ptr noundef null) #9
  br i1 %70, label %73, label %75

71:                                               ; preds = %68
  %72 = call zeroext i1 @errstart(i32 noundef 21, ptr noundef null)
  br i1 %72, label %73, label %75

73:                                               ; preds = %71, %69
  %74 = call i32 (ptr, ...) @errmsg_internal(ptr noundef @.str.10)
  call void @errfinish(ptr noundef @.str.1, i32 noundef 1018, ptr noundef @__func__.dsm_unpin_segment)
  br label %75

75:                                               ; preds = %73, %71, %69
  unreachable

76:                                               ; No predecessors!
  br label %77

77:                                               ; preds = %76
  br label %78

78:                                               ; preds = %77, %58
  %79 = load i32, ptr %2, align 4
  %80 = call zeroext i1 @is_main_region_dsm_handle(i32 noundef %79)
  br i1 %80, label %89, label %81

81:                                               ; preds = %78
  %82 = load i32, ptr %2, align 4
  %83 = load ptr, ptr @dsm_control, align 8
  %84 = getelementptr inbounds nuw %struct.dsm_control_header, ptr %83, i32 0, i32 3
  %85 = load i32, ptr %3, align 4
  %86 = zext i32 %85 to i64
  %87 = getelementptr inbounds nuw [0 x %struct.dsm_control_item], ptr %84, i64 0, i64 %86
  %88 = getelementptr inbounds nuw %struct.dsm_control_item, ptr %87, i32 0, i32 4
  call void @dsm_impl_unpin_segment(i32 noundef %82, ptr noundef %88)
  br label %89

89:                                               ; preds = %81, %78
  %90 = load ptr, ptr @dsm_control, align 8
  %91 = getelementptr inbounds nuw %struct.dsm_control_header, ptr %90, i32 0, i32 3
  %92 = load i32, ptr %3, align 4
  %93 = zext i32 %92 to i64
  %94 = getelementptr inbounds nuw [0 x %struct.dsm_control_item], ptr %91, i64 0, i64 %93
  %95 = getelementptr inbounds nuw %struct.dsm_control_item, ptr %94, i32 0, i32 1
  %96 = load i32, ptr %95, align 4
  %97 = add i32 %96, -1
  store i32 %97, ptr %95, align 4
  %98 = icmp eq i32 %97, 1
  br i1 %98, label %99, label %100

99:                                               ; preds = %89
  store i8 1, ptr %4, align 1
  br label %100

100:                                              ; preds = %99, %89
  %101 = load ptr, ptr @dsm_control, align 8
  %102 = getelementptr inbounds nuw %struct.dsm_control_header, ptr %101, i32 0, i32 3
  %103 = load i32, ptr %3, align 4
  %104 = zext i32 %103 to i64
  %105 = getelementptr inbounds nuw [0 x %struct.dsm_control_item], ptr %102, i64 0, i64 %104
  %106 = getelementptr inbounds nuw %struct.dsm_control_item, ptr %105, i32 0, i32 5
  store i8 0, ptr %106, align 8
  %107 = load ptr, ptr @MainLWLockArray, align 8
  %108 = getelementptr inbounds %union.LWLockPadded, ptr %107, i64 34
  call void @LWLockRelease(ptr noundef %108)
  %109 = load i8, ptr %4, align 1, !range !8, !noundef !9
  %110 = trunc i8 %109 to i1
  br i1 %110, label %111, label %149

111:                                              ; preds = %100
  call void @llvm.lifetime.start.p0(i64 8, ptr %6) #8
  store ptr null, ptr %6, align 8
  call void @llvm.lifetime.start.p0(i64 8, ptr %7) #8
  store ptr null, ptr %7, align 8
  call void @llvm.lifetime.start.p0(i64 8, ptr %8) #8
  store i64 0, ptr %8, align 8
  %112 = load i32, ptr %2, align 4
  %113 = call zeroext i1 @is_main_region_dsm_handle(i32 noundef %112)
  br i1 %113, label %117, label %114

114:                                              ; preds = %111
  %115 = load i32, ptr %2, align 4
  %116 = call zeroext i1 @dsm_impl_op(i32 noundef 3, i32 noundef %115, i64 noundef 0, ptr noundef %6, ptr noundef %7, ptr noundef %8, i32 noundef 19)
  br i1 %116, label %117, label %148

117:                                              ; preds = %114, %111
  %118 = load ptr, ptr @MainLWLockArray, align 8
  %119 = getelementptr inbounds %union.LWLockPadded, ptr %118, i64 34
  %120 = call zeroext i1 @LWLockAcquire(ptr noundef %119, i32 noundef 0)
  %121 = load i32, ptr %2, align 4
  %122 = call zeroext i1 @is_main_region_dsm_handle(i32 noundef %121)
  br i1 %122, label %123, label %139

123:                                              ; preds = %117
  %124 = load ptr, ptr @dsm_main_space_begin, align 8
  %125 = load ptr, ptr @dsm_control, align 8
  %126 = getelementptr inbounds nuw %struct.dsm_control_header, ptr %125, i32 0, i32 3
  %127 = load i32, ptr %3, align 4
  %128 = zext i32 %127 to i64
  %129 = getelementptr inbounds nuw [0 x %struct.dsm_control_item], ptr %126, i64 0, i64 %128
  %130 = getelementptr inbounds nuw %struct.dsm_control_item, ptr %129, i32 0, i32 2
  %131 = load i64, ptr %130, align 8
  %132 = load ptr, ptr @dsm_control, align 8
  %133 = getelementptr inbounds nuw %struct.dsm_control_header, ptr %132, i32 0, i32 3
  %134 = load i32, ptr %3, align 4
  %135 = zext i32 %134 to i64
  %136 = getelementptr inbounds nuw [0 x %struct.dsm_control_item], ptr %133, i64 0, i64 %135
  %137 = getelementptr inbounds nuw %struct.dsm_control_item, ptr %136, i32 0, i32 3
  %138 = load i64, ptr %137, align 8
  call void @FreePageManagerPut(ptr noundef %124, i64 noundef %131, i64 noundef %138)
  br label %139

139:                                              ; preds = %123, %117
  %140 = load ptr, ptr @dsm_control, align 8
  %141 = getelementptr inbounds nuw %struct.dsm_control_header, ptr %140, i32 0, i32 3
  %142 = load i32, ptr %3, align 4
  %143 = zext i32 %142 to i64
  %144 = getelementptr inbounds nuw [0 x %struct.dsm_control_item], ptr %141, i64 0, i64 %143
  %145 = getelementptr inbounds nuw %struct.dsm_control_item, ptr %144, i32 0, i32 1
  store i32 0, ptr %145, align 4
  %146 = load ptr, ptr @MainLWLockArray, align 8
  %147 = getelementptr inbounds %union.LWLockPadded, ptr %146, i64 34
  call void @LWLockRelease(ptr noundef %147)
  br label %148

148:                                              ; preds = %139, %114
  call void @llvm.lifetime.end.p0(i64 8, ptr %8) #8
  call void @llvm.lifetime.end.p0(i64 8, ptr %7) #8
  call void @llvm.lifetime.end.p0(i64 8, ptr %6) #8
  br label %149

149:                                              ; preds = %148, %100
  call void @llvm.lifetime.end.p0(i64 4, ptr %5) #8
  call void @llvm.lifetime.end.p0(i64 1, ptr %4) #8
  call void @llvm.lifetime.end.p0(i64 4, ptr %3) #8
  ret void
}