; Function Attrs: nounwind uwtable
define dso_local void @dsm_unpin_segment(i32 noundef %0) local_unnamed_addr #0 {
  %2 = alloca ptr, align 8
  %3 = alloca ptr, align 8
  %4 = alloca i64, align 8
  %5 = load ptr, ptr @MainLWLockArray, align 8
  %6 = getelementptr inbounds nuw i8, ptr %5, i64 4352
  %7 = tail call zeroext i1 @LWLockAcquire(ptr noundef nonnull %6, i32 noundef 0) #12
  %8 = load ptr, ptr @dsm_control, align 8
  %9 = getelementptr inbounds nuw i8, ptr %8, i64 4
  %10 = load i32, ptr %9, align 4
  %.not31 = icmp eq i32 %10, 0
  br i1 %.not31, label %._crit_edge, label %.lr.ph

.lr.ph:                                           ; preds = %1
  %11 = getelementptr inbounds nuw i8, ptr %8, i64 16
  %wide.trip.count = zext i32 %10 to i64
  br label %12

12:                                               ; preds = %.lr.ph, %20
  %indvars.iv = phi i64 [ 0, %.lr.ph ], [ %indvars.iv.next, %20 ]
  %13 = getelementptr inbounds nuw [0 x %struct.dsm_control_item], ptr %11, i64 0, i64 %indvars.iv
  %14 = getelementptr inbounds nuw i8, ptr %13, i64 4
  %15 = load i32, ptr %14, align 4
  %16 = icmp ult i32 %15, 2
  br i1 %16, label %20, label %17

17:                                               ; preds = %12
  %18 = load i32, ptr %13, align 8
  %19 = icmp eq i32 %18, %0
  br i1 %19, label %23, label %20

20:                                               ; preds = %17, %12
  %indvars.iv.next = add nuw nsw i64 %indvars.iv, 1
  %exitcond.not = icmp eq i64 %indvars.iv.next, %wide.trip.count
  br i1 %exitcond.not, label %._crit_edge, label %12, !llvm.loop !16

._crit_edge:                                      ; preds = %20, %1
  %21 = tail call zeroext i1 @errstart_cold(i32 noundef 21, ptr noundef null) #14
  tail call void @llvm.assume(i1 %21)
  %22 = tail call i32 (ptr, ...) @errmsg_internal(ptr noundef nonnull @.str.9) #12
  tail call void @errfinish(ptr noundef nonnull @.str.1, i32 noundef 1016, ptr noundef nonnull @__func__.dsm_unpin_segment) #12
  unreachable

23:                                               ; preds = %17
  %24 = and i64 %indvars.iv, 4294967295
  %.idx = mul nuw nsw i64 %24, 40
  %25 = getelementptr i8, ptr %8, i64 48
  %26 = getelementptr i8, ptr %25, i64 %.idx
  %27 = load i8, ptr %26, align 8, !range !8, !noundef !9
  %28 = trunc nuw i8 %27 to i1
  br i1 %28, label %32, label %29

29:                                               ; preds = %23
  %30 = tail call zeroext i1 @errstart_cold(i32 noundef 21, ptr noundef null) #14
  tail call void @llvm.assume(i1 %30)
  %31 = tail call i32 (ptr, ...) @errmsg_internal(ptr noundef nonnull @.str.10) #12
  tail call void @errfinish(ptr noundef nonnull @.str.1, i32 noundef 1018, ptr noundef nonnull @__func__.dsm_unpin_segment) #12
  unreachable

32:                                               ; preds = %23
  %33 = and i32 %0, 1
  %.not = icmp eq i32 %33, 0
  br i1 %.not, label %34, label %37

34:                                               ; preds = %32
  %35 = getelementptr i8, ptr %8, i64 40
  %36 = getelementptr i8, ptr %35, i64 %.idx
  tail call void @dsm_impl_unpin_segment(i32 noundef %0, ptr noundef %36) #12
  %.pre = load ptr, ptr @dsm_control, align 8
  br label %37

37:                                               ; preds = %34, %32
  %38 = phi ptr [ %.pre, %34 ], [ %8, %32 ]
  %39 = getelementptr i8, ptr %38, i64 20
  %40 = getelementptr i8, ptr %39, i64 %.idx
  %41 = load i32, ptr %40, align 4
  %42 = add i32 %41, -1
  store i32 %42, ptr %40, align 4
  %43 = icmp eq i32 %42, 1
  %44 = getelementptr i8, ptr %38, i64 48
  %45 = getelementptr i8, ptr %44, i64 %.idx
  store i8 0, ptr %45, align 8
  %46 = load ptr, ptr @MainLWLockArray, align 8
  %47 = getelementptr inbounds nuw i8, ptr %46, i64 4352
  tail call void @LWLockRelease(ptr noundef nonnull %47) #12
  br i1 %43, label %48, label %74

48:                                               ; preds = %37
  call void @llvm.lifetime.start.p0(i64 8, ptr nonnull %2) #12
  store ptr null, ptr %2, align 8
  call void @llvm.lifetime.start.p0(i64 8, ptr nonnull %3) #12
  store ptr null, ptr %3, align 8
  call void @llvm.lifetime.start.p0(i64 8, ptr nonnull %4) #12
  store i64 0, ptr %4, align 8
  br i1 %.not, label %49, label %55

49:                                               ; preds = %48
  %50 = call zeroext i1 @dsm_impl_op(i32 noundef 3, i32 noundef %0, i64 noundef 0, ptr noundef nonnull %2, ptr noundef nonnull %3, ptr noundef nonnull %4, i32 noundef 19) #12
  br i1 %50, label %51, label %73

51:                                               ; preds = %49
  %52 = load ptr, ptr @MainLWLockArray, align 8
  %53 = getelementptr inbounds nuw i8, ptr %52, i64 4352
  %54 = call zeroext i1 @LWLockAcquire(ptr noundef nonnull %53, i32 noundef 0) #12
  br label %67

55:                                               ; preds = %48
  %56 = load ptr, ptr @MainLWLockArray, align 8
  %57 = getelementptr inbounds nuw i8, ptr %56, i64 4352
  %58 = tail call zeroext i1 @LWLockAcquire(ptr noundef nonnull %57, i32 noundef 0) #12
  %59 = load ptr, ptr @dsm_main_space_begin, align 8
  %60 = load ptr, ptr @dsm_control, align 8
  %61 = getelementptr inbounds nuw i8, ptr %60, i64 16
  %62 = getelementptr inbounds nuw [0 x %struct.dsm_control_item], ptr %61, i64 0, i64 %24
  %63 = getelementptr inbounds nuw i8, ptr %62, i64 8
  %64 = load i64, ptr %63, align 8
  %65 = getelementptr inbounds nuw i8, ptr %62, i64 16
  %66 = load i64, ptr %65, align 8
  tail call void @FreePageManagerPut(ptr noundef %59, i64 noundef %64, i64 noundef %66) #12
  br label %67

67:                                               ; preds = %51, %55
  %68 = load ptr, ptr @dsm_control, align 8
  %69 = getelementptr i8, ptr %68, i64 20
  %70 = getelementptr i8, ptr %69, i64 %.idx
  store i32 0, ptr %70, align 4
  %71 = load ptr, ptr @MainLWLockArray, align 8
  %72 = getelementptr inbounds nuw i8, ptr %71, i64 4352
  call void @LWLockRelease(ptr noundef nonnull %72) #12
  br label %73

73:                                               ; preds = %67, %49
  call void @llvm.lifetime.end.p0(i64 8, ptr nonnull %4) #12
  call void @llvm.lifetime.end.p0(i64 8, ptr nonnull %3) #12
  call void @llvm.lifetime.end.p0(i64 8, ptr nonnull %2) #12
  br label %74

74:                                               ; preds = %73, %37
  ret void
}